; Function Attrs: nofree nosync nounwind memory(readwrite, inaccessiblemem: none) uwtable
define i64 @Gia_LutComputeTruth6_rec(ptr noundef %0, i32 noundef %1, ptr noundef %2) local_unnamed_addr #5 {
  %4 = getelementptr i8, ptr %0, i64 176
  %.val33 = load i32, ptr %4, align 8, !tbaa !42
  %5 = getelementptr i8, ptr %0, i64 616
  %.val34 = load ptr, ptr %5, align 8, !tbaa !43
  %6 = sext i32 %1 to i64
  %7 = getelementptr inbounds i32, ptr %.val34, i64 %6
  %8 = load i32, ptr %7, align 4, !tbaa !31
  %.not = icmp eq i32 %8, %.val33
  br i1 %.not, label %common.ret, label %12

common.ret:                                       ; preds = %3
  %9 = getelementptr i8, ptr %2, i64 8
  %.val35 = load ptr, ptr %9, align 8, !tbaa !44
  %10 = getelementptr inbounds i64, ptr %.val35, i64 %6
  %11 = load i64, ptr %10, align 8, !tbaa !28
  br label %common.ret42

common.ret42:                                     ; preds = %12, %common.ret
  %common.ret42.op = phi i64 [ %11, %common.ret ], [ %31, %12 ]
  ret i64 %common.ret42.op

12:                                               ; preds = %3
  store i32 %.val33, ptr %7, align 4, !tbaa !31
  %13 = getelementptr i8, ptr %0, i64 32
  %.val = load ptr, ptr %13, align 8, !tbaa !3
  %14 = getelementptr inbounds %struct.Gia_Obj_t_, ptr %.val, i64 %6
  %15 = ptrtoint ptr %14 to i64
  %.val.i = load i64, ptr %14, align 4
  %16 = trunc i64 %.val.i to i32
  %17 = and i32 %16, 536870911
  %18 = sub nsw i32 %1, %17
  %19 = tail call i64 @Gia_LutComputeTruth6_rec(ptr noundef nonnull %0, i32 noundef %18, ptr noundef %2)
  %.val38 = load ptr, ptr %13, align 8, !tbaa !3
  %20 = ptrtoint ptr %.val38 to i64
  %21 = sub i64 %15, %20
  %22 = sdiv exact i64 %21, 12
  %23 = trunc i64 %22 to i32
  %.val.i40 = load i64, ptr %14, align 4
  %24 = lshr i64 %.val.i40, 32
  %25 = trunc nuw i64 %24 to i32
  %26 = and i32 %25, 536870911
  %27 = sub nsw i32 %23, %26
  %28 = tail call i64 @Gia_LutComputeTruth6_rec(ptr noundef nonnull %0, i32 noundef %27, ptr noundef %2)
  %.val30 = load i64, ptr %14, align 4
  %29 = shl i64 %.val30, 34
  %sext = ashr i64 %29, 63
  %spec.select = xor i64 %sext, %19
  %30 = shl i64 %.val30, 2
  %sext41 = ashr i64 %30, 63
  %.0 = xor i64 %sext41, %28
  %31 = and i64 %spec.select, %.0
  %32 = getelementptr i8, ptr %2, i64 8
  %.val39 = load ptr, ptr %32, align 8, !tbaa !44
  %33 = getelementptr inbounds i64, ptr %.val39, i64 %6
  store i64 %31, ptr %33, align 8, !tbaa !28
  br label %common.ret42
}